; Function Attrs: mustprogress nounwind uwtable
define hidden noundef zeroext i1 @_ZN6hermes2vm15instrumentation11PerfCounter17endAndInsertStatsERNSt7__cxx1112basic_stringIcSt11char_traitsIcESaIcEEE(ptr nocapture noundef nonnull readonly align 8 dereferenceable(32) %this, ptr noundef nonnull align 8 dereferenceable(32) %jsonStats) local_unnamed_addr #0 align 2 {
entry:
  %count = alloca i64, align 8
  %stats = alloca %"class.std::__cxx11::basic_string", align 8
  %os = alloca %"class.llvh::raw_string_ostream", align 8
  %0 = load i32, ptr %this, align 8
  %cmp = icmp eq i32 %0, -1
  br i1 %cmp, label %return, label %if.end

if.end:                                           ; preds = %entry
  store i64 0, ptr %count, align 8
  %call = tail call i32 (i32, i64, ...) @ioctl(i32 noundef %0, i64 noundef 9217, i32 noundef 0) #8
  %1 = load i32, ptr %this, align 8
  %call4 = call i64 @read(i32 noundef %1, ptr noundef nonnull %count, i64 noundef 8) #8
  %cmp5 = icmp slt i64 %call4, 1
  br i1 %cmp5, label %return, label %_ZN4llvh11raw_ostreamlsEPKc.exit

_ZN4llvh11raw_ostreamlsEPKc.exit:                 ; preds = %if.end
  call void @_ZNSt7__cxx1112basic_stringIcSt11char_traitsIcESaIcEEC1Ev(ptr noundef nonnull align 8 dereferenceable(32) %stats) #8
  %BufferMode.i.i = getelementptr inbounds i8, ptr %os, i64 32
  store i32 1, ptr %BufferMode.i.i, align 8
  %OutBufStart.i.i = getelementptr inbounds i8, ptr %os, i64 8
  call void @llvm.memset.p0.i64(ptr noundef nonnull align 8 dereferenceable(24) %OutBufStart.i.i, i8 0, i64 24, i1 false)
  store ptr getelementptr inbounds ({ [13 x ptr] }, ptr @_ZTVN4llvh18raw_string_ostreamE, i64 0, i32 0, i64 2), ptr %os, align 8
  %OS.i = getelementptr inbounds i8, ptr %os, i64 40
  store ptr %stats, ptr %OS.i, align 8
  %OutBufCur.i6.i = getelementptr inbounds i8, ptr %os, i64 24
  %call3.i.i = call noundef nonnull align 8 dereferenceable(36) ptr @_ZN4llvh11raw_ostream5writeEPKcm(ptr noundef nonnull align 8 dereferenceable(36) %os, ptr noundef nonnull @.str, i64 noundef 11) #8
  %name_ = getelementptr inbounds i8, ptr %this, i64 8
  %2 = load ptr, ptr %name_, align 8
  %tobool.i.not.i = icmp eq ptr %2, null
  br i1 %tobool.i.not.i, label %_ZN4llvh11raw_ostreamlsEPKc.exit17, label %cond.true.i.split.i

cond.true.i.split.i:                              ; preds = %_ZN4llvh11raw_ostreamlsEPKc.exit
  %call.i.i3 = call i64 @strlen(ptr noundef nonnull dereferenceable(1) %2) #9
  %OutBufEnd.i5.i4 = getelementptr inbounds i8, ptr %call3.i.i, i64 16
  %3 = load ptr, ptr %OutBufEnd.i5.i4, align 8
  %OutBufCur.i6.i5 = getelementptr inbounds i8, ptr %call3.i.i, i64 24
  %4 = load ptr, ptr %OutBufCur.i6.i5, align 8
  %sub.ptr.lhs.cast.i7.i6 = ptrtoint ptr %3 to i64
  %sub.ptr.rhs.cast.i8.i7 = ptrtoint ptr %4 to i64
  %sub.ptr.sub.i9.i8 = sub i64 %sub.ptr.lhs.cast.i7.i6, %sub.ptr.rhs.cast.i8.i7
  %cmp.i.i9 = icmp ult i64 %sub.ptr.sub.i9.i8, %call.i.i3
  br i1 %cmp.i.i9, label %if.then.i.i15, label %if.end.i.i10

if.then.i.i15:                                    ; preds = %cond.true.i.split.i
  %call3.i.i16 = call noundef nonnull align 8 dereferenceable(36) ptr @_ZN4llvh11raw_ostream5writeEPKcm(ptr noundef nonnull align 8 dereferenceable(36) %call3.i.i, ptr noundef nonnull %2, i64 noundef %call.i.i3) #8
  br label %_ZN4llvh11raw_ostreamlsEPKc.exit17

if.end.i.i10:                                     ; preds = %cond.true.i.split.i
  %tobool.not.i.i11 = icmp eq i64 %call.i.i3, 0
  br i1 %tobool.not.i.i11, label %_ZN4llvh11raw_ostreamlsEPKc.exit17, label %if.then4.i.i12

if.then4.i.i12:                                   ; preds = %if.end.i.i10
  call void @llvm.memcpy.p0.p0.i64(ptr align 1 %4, ptr nonnull align 1 %2, i64 %call.i.i3, i1 false)
  %5 = load ptr, ptr %OutBufCur.i6.i5, align 8
  %add.ptr.i.i13 = getelementptr inbounds i8, ptr %5, i64 %call.i.i3
  store ptr %add.ptr.i.i13, ptr %OutBufCur.i6.i5, align 8
  br label %_ZN4llvh11raw_ostreamlsEPKc.exit17

_ZN4llvh11raw_ostreamlsEPKc.exit17:               ; preds = %_ZN4llvh11raw_ostreamlsEPKc.exit, %if.then.i.i15, %if.end.i.i10, %if.then4.i.i12
  %phi.call.i14 = phi ptr [ %call3.i.i16, %if.then.i.i15 ], [ %call3.i.i, %if.then4.i.i12 ], [ %call3.i.i, %if.end.i.i10 ], [ %call3.i.i, %_ZN4llvh11raw_ostreamlsEPKc.exit ]
  %OutBufEnd.i5.i20 = getelementptr inbounds i8, ptr %phi.call.i14, i64 16
  %6 = load ptr, ptr %OutBufEnd.i5.i20, align 8
  %OutBufCur.i6.i21 = getelementptr inbounds i8, ptr %phi.call.i14, i64 24
  %7 = load ptr, ptr %OutBufCur.i6.i21, align 8
  %sub.ptr.lhs.cast.i7.i22 = ptrtoint ptr %6 to i64
  %sub.ptr.rhs.cast.i8.i23 = ptrtoint ptr %7 to i64
  %sub.ptr.sub.i9.i24 = sub i64 %sub.ptr.lhs.cast.i7.i22, %sub.ptr.rhs.cast.i8.i23
  %cmp.i.i25 = icmp ult i64 %sub.ptr.sub.i9.i24, 3
  br i1 %cmp.i.i25, label %if.then.i.i31, label %if.then4.i.i28

if.then.i.i31:                                    ; preds = %_ZN4llvh11raw_ostreamlsEPKc.exit17
  %call3.i.i32 = call noundef nonnull align 8 dereferenceable(36) ptr @_ZN4llvh11raw_ostream5writeEPKcm(ptr noundef nonnull align 8 dereferenceable(36) %phi.call.i14, ptr noundef nonnull @.str.1, i64 noundef 3) #8
  br label %_ZN4llvh11raw_ostreamlsEPKc.exit33

if.then4.i.i28:                                   ; preds = %_ZN4llvh11raw_ostreamlsEPKc.exit17
  call void @llvm.memcpy.p0.p0.i64(ptr noundef nonnull align 1 dereferenceable(3) %7, ptr noundef nonnull align 1 dereferenceable(3) @.str.1, i64 3, i1 false)
  %8 = load ptr, ptr %OutBufCur.i6.i21, align 8
  %add.ptr.i.i29 = getelementptr inbounds i8, ptr %8, i64 3
  store ptr %add.ptr.i.i29, ptr %OutBufCur.i6.i21, align 8
  br label %_ZN4llvh11raw_ostreamlsEPKc.exit33

_ZN4llvh11raw_ostreamlsEPKc.exit33:               ; preds = %if.then.i.i31, %if.then4.i.i28
  %phi.call.i30 = phi ptr [ %call3.i.i32, %if.then.i.i31 ], [ %phi.call.i14, %if.then4.i.i28 ]
  %9 = load i64, ptr %count, align 8
  %call11 = call noundef nonnull align 8 dereferenceable(36) ptr @_ZN4llvh11raw_ostreamlsEm(ptr noundef nonnull align 8 dereferenceable(36) %phi.call.i30, i64 noundef %9) #8
  %OutBufEnd.i5.i36 = getelementptr inbounds i8, ptr %call11, i64 16
  %10 = load ptr, ptr %OutBufEnd.i5.i36, align 8
  %OutBufCur.i6.i37 = getelementptr inbounds i8, ptr %call11, i64 24
  %11 = load ptr, ptr %OutBufCur.i6.i37, align 8
  %sub.ptr.lhs.cast.i7.i38 = ptrtoint ptr %10 to i64
  %sub.ptr.rhs.cast.i8.i39 = ptrtoint ptr %11 to i64
  %sub.ptr.sub.i9.i40 = sub i64 %sub.ptr.lhs.cast.i7.i38, %sub.ptr.rhs.cast.i8.i39
  %cmp.i.i41 = icmp ult i64 %sub.ptr.sub.i9.i40, 4
  br i1 %cmp.i.i41, label %if.then.i.i47, label %if.then4.i.i44

if.then.i.i47:                                    ; preds = %_ZN4llvh11raw_ostreamlsEPKc.exit33
  %call3.i.i48 = call noundef nonnull align 8 dereferenceable(36) ptr @_ZN4llvh11raw_ostream5writeEPKcm(ptr noundef nonnull align 8 dereferenceable(36) %call11, ptr noundef nonnull @.str.2, i64 noundef 4) #8
  br label %_ZN4llvh11raw_ostreamlsEPKc.exit49

if.then4.i.i44:                                   ; preds = %_ZN4llvh11raw_ostreamlsEPKc.exit33
  store i32 151587372, ptr %11, align 1
  %12 = load ptr, ptr %OutBufCur.i6.i37, align 8
  %add.ptr.i.i45 = getelementptr inbounds i8, ptr %12, i64 4
  store ptr %add.ptr.i.i45, ptr %OutBufCur.i6.i37, align 8
  br label %_ZN4llvh11raw_ostreamlsEPKc.exit49

_ZN4llvh11raw_ostreamlsEPKc.exit49:               ; preds = %if.then.i.i47, %if.then4.i.i44
  %13 = load ptr, ptr %OutBufCur.i6.i, align 8
  %14 = load ptr, ptr %OutBufStart.i.i, align 8
  %cmp.not.i = icmp eq ptr %13, %14
  br i1 %cmp.not.i, label %_ZN4llvh11raw_ostream5flushEv.exit, label %if.then.i

if.then.i:                                        ; preds = %_ZN4llvh11raw_ostreamlsEPKc.exit49
  call void @_ZN4llvh11raw_ostream14flush_nonemptyEv(ptr noundef nonnull align 8 dereferenceable(36) %os) #8
  br label %_ZN4llvh11raw_ostream5flushEv.exit

_ZN4llvh11raw_ostream5flushEv.exit:               ; preds = %_ZN4llvh11raw_ostreamlsEPKc.exit49, %if.then.i
  %call13 = call noundef i64 @_ZNKSt7__cxx1112basic_stringIcSt11char_traitsIcESaIcEE4findEPKcm(ptr noundef nonnull align 8 dereferenceable(32) %jsonStats, ptr noundef nonnull @.str.3, i64 noundef 0) #8
  %cmp14 = icmp ne i64 %call13, -1
  br i1 %cmp14, label %if.end16, label %cleanup

if.end16:                                         ; preds = %_ZN4llvh11raw_ostream5flushEv.exit
  %call17 = call noundef nonnull align 8 dereferenceable(32) ptr @_ZNSt7__cxx1112basic_stringIcSt11char_traitsIcESaIcEE6insertEmRKS4_(ptr noundef nonnull align 8 dereferenceable(32) %jsonStats, i64 noundef %call13, ptr noundef nonnull align 8 dereferenceable(32) %stats) #8
  br label %cleanup

cleanup:                                          ; preds = %_ZN4llvh11raw_ostream5flushEv.exit, %if.end16
  call void @_ZN4llvh18raw_string_ostreamD1Ev(ptr noundef nonnull align 8 dereferenceable(48) %os) #8
  call void @_ZNSt7__cxx1112basic_stringIcSt11char_traitsIcESaIcEED1Ev(ptr noundef nonnull align 8 dereferenceable(32) %stats) #8
  br label %return

return:                                           ; preds = %if.end, %entry, %cleanup
  %retval.1 = phi i1 [ %cmp14, %cleanup ], [ false, %entry ], [ false, %if.end ]
  ret i1 %retval.1
}